target datalayout = "e-m:e-p270:32:32-p271:32:32-p272:64:64-i64:64-i128:128-f80:128-n8:16:32:64-S128"
target triple = "x86_64-pc-linux-gnu"

%struct.evthread_lock_callbacks = type { i32, i32, ptr, ptr, ptr, ptr }
%struct.bufferevent_private = type { %struct.bufferevent, ptr, i8, i16, i16, i16, i32, i32, %struct.event_callback, i32, i32, ptr, i64, i64, ptr, %union.anon.7, ptr }
%struct.bufferevent = type { ptr, ptr, %struct.event, %struct.event, ptr, ptr, %struct.event_watermark, %struct.event_watermark, ptr, ptr, ptr, ptr, %struct.timeval, %struct.timeval, i16 }
%struct.event = type { %struct.event_callback, %union.anon.0, i32, i16, i16, ptr, %union.anon.2, %struct.timeval }
%union.anon.0 = type { %struct.anon.1 }
%struct.anon.1 = type { ptr, ptr }
%union.anon.2 = type { %struct.anon.3 }
%struct.anon.3 = type { %struct.anon.4, %struct.timeval }
%struct.anon.4 = type { ptr, ptr }
%struct.event_watermark = type { i64, i64 }
%struct.timeval = type { i64, i64 }
%struct.event_callback = type { %struct.anon, i16, i8, i8, %union.anon, ptr }
%struct.anon = type { ptr, ptr }
%union.anon = type { ptr }
%union.anon.7 = type { %struct.sockaddr_in6 }
%struct.sockaddr_in6 = type { i16, i16, i32, %struct.in6_addr, i32 }
%struct.in6_addr = type { %union.anon.8 }
%union.anon.8 = type { [4 x i32] }

@evthread_lock_fns_ = external global %struct.evthread_lock_callbacks, align 8

; Function Attrs: nounwind uwtable
define i32 @bufferevent_getwatermark(ptr noundef %0, i16 noundef signext %1, ptr noundef %2, ptr noundef %3) #0 {
  %5 = alloca i32, align 4
  %6 = alloca ptr, align 8
  %7 = alloca i16, align 2
  %8 = alloca ptr, align 8
  %9 = alloca ptr, align 8
  %10 = alloca ptr, align 8
  %11 = alloca ptr, align 8
  %12 = alloca ptr, align 8
  %13 = alloca ptr, align 8
  store ptr %0, ptr %6, align 8
  store i16 %1, ptr %7, align 2
  store ptr %2, ptr %8, align 8
  store ptr %3, ptr %9, align 8
  %14 = load i16, ptr %7, align 2
  %15 = sext i16 %14 to i32
  %16 = icmp eq i32 %15, 4
  br i1 %16, label %17, label %72

17:                                               ; preds = %4
  br label %18

18:                                               ; preds = %17
  call void @llvm.lifetime.start.p0(i64 8, ptr %10) #7
  %19 = load ptr, ptr %6, align 8
  %20 = getelementptr inbounds i8, ptr %19, i64 0
  store ptr %20, ptr %10, align 8
  br label %21

21:                                               ; preds = %18
  %22 = load ptr, ptr %10, align 8
  %23 = getelementptr inbounds nuw %struct.bufferevent_private, ptr %22, i32 0, i32 11
  %24 = load ptr, ptr %23, align 8
  %25 = icmp ne ptr %24, null
  br i1 %25, label %26, label %32

26:                                               ; preds = %21
  %27 = load ptr, ptr getelementptr inbounds nuw (%struct.evthread_lock_callbacks, ptr @evthread_lock_fns_, i32 0, i32 4), align 8
  %28 = load ptr, ptr %10, align 8
  %29 = getelementptr inbounds nuw %struct.bufferevent_private, ptr %28, i32 0, i32 11
  %30 = load ptr, ptr %29, align 8
  %31 = call i32 %27(i32 noundef 0, ptr noundef %30)
  br label %32

32:                                               ; preds = %26, %21
  br label %33

33:                                               ; preds = %32
  br label %34

34:                                               ; preds = %33
  call void @llvm.lifetime.end.p0(i64 8, ptr %10) #7
  br label %35

35:                                               ; preds = %34
  %36 = load ptr, ptr %8, align 8
  %37 = icmp ne ptr %36, null
  br i1 %37, label %38, label %44

38:                                               ; preds = %35
  %39 = load ptr, ptr %6, align 8
  %40 = getelementptr inbounds nuw %struct.bufferevent, ptr %39, i32 0, i32 7
  %41 = getelementptr inbounds nuw %struct.event_watermark, ptr %40, i32 0, i32 0
  %42 = load i64, ptr %41, align 8
  %43 = load ptr, ptr %8, align 8
  store i64 %42, ptr %43, align 8
  br label %44

44:                                               ; preds = %38, %35
  %45 = load ptr, ptr %9, align 8
  %46 = icmp ne ptr %45, null
  br i1 %46, label %47, label %53

47:                                               ; preds = %44
  %48 = load ptr, ptr %6, align 8
  %49 = getelementptr inbounds nuw %struct.bufferevent, ptr %48, i32 0, i32 7
  %50 = getelementptr inbounds nuw %struct.event_watermark, ptr %49, i32 0, i32 1
  %51 = load i64, ptr %50, align 8
  %52 = load ptr, ptr %9, align 8
  store i64 %51, ptr %52, align 8
  br label %53

53:                                               ; preds = %47, %44
  br label %54

54:                                               ; preds = %53
  call void @llvm.lifetime.start.p0(i64 8, ptr %11) #7
  %55 = load ptr, ptr %6, align 8
  %56 = getelementptr inbounds i8, ptr %55, i64 0
  store ptr %56, ptr %11, align 8
  br label %57

57:                                               ; preds = %54
  %58 = load ptr, ptr %11, align 8
  %59 = getelementptr inbounds nuw %struct.bufferevent_private, ptr %58, i32 0, i32 11
  %60 = load ptr, ptr %59, align 8
  %61 = icmp ne ptr %60, null
  br i1 %61, label %62, label %68

62:                                               ; preds = %57
  %63 = load ptr, ptr getelementptr inbounds nuw (%struct.evthread_lock_callbacks, ptr @evthread_lock_fns_, i32 0, i32 5), align 8
  %64 = load ptr, ptr %11, align 8
  %65 = getelementptr inbounds nuw %struct.bufferevent_private, ptr %64, i32 0, i32 11
  %66 = load ptr, ptr %65, align 8
  %67 = call i32 %63(i32 noundef 0, ptr noundef %66)
  br label %68

68:                                               ; preds = %62, %57
  br label %69

69:                                               ; preds = %68
  br label %70

70:                                               ; preds = %69
  call void @llvm.lifetime.end.p0(i64 8, ptr %11) #7
  br label %71

71:                                               ; preds = %70
  store i32 0, ptr %5, align 4
  br label %132

72:                                               ; preds = %4
  %73 = load i16, ptr %7, align 2
  %74 = sext i16 %73 to i32
  %75 = icmp eq i32 %74, 2
  br i1 %75, label %76, label %131

76:                                               ; preds = %72
  br label %77

77:                                               ; preds = %76
  call void @llvm.lifetime.start.p0(i64 8, ptr %12) #7
  %78 = load ptr, ptr %6, align 8
  %79 = getelementptr inbounds i8, ptr %78, i64 0
  store ptr %79, ptr %12, align 8
  br label %80

80:                                               ; preds = %77
  %81 = load ptr, ptr %12, align 8
  %82 = getelementptr inbounds nuw %struct.bufferevent_private, ptr %81, i32 0, i32 11
  %83 = load ptr, ptr %82, align 8
  %84 = icmp ne ptr %83, null
  br i1 %84, label %85, label %91

85:                                               ; preds = %80
  %86 = load ptr, ptr getelementptr inbounds nuw (%struct.evthread_lock_callbacks, ptr @evthread_lock_fns_, i32 0, i32 4), align 8
  %87 = load ptr, ptr %12, align 8
  %88 = getelementptr inbounds nuw %struct.bufferevent_private, ptr %87, i32 0, i32 11
  %89 = load ptr, ptr %88, align 8
  %90 = call i32 %86(i32 noundef 0, ptr noundef %89)
  br label %91

91:                                               ; preds = %85, %80
  br label %92

92:                                               ; preds = %91
  br label %93

93:                                               ; preds = %92
  call void @llvm.lifetime.end.p0(i64 8, ptr %12) #7
  br label %94

94:                                               ; preds = %93
  %95 = load ptr, ptr %8, align 8
  %96 = icmp ne ptr %95, null
  br i1 %96, label %97, label %103

97:                                               ; preds = %94
  %98 = load ptr, ptr %6, align 8
  %99 = getelementptr inbounds nuw %struct.bufferevent, ptr %98, i32 0, i32 6
  %100 = getelementptr inbounds nuw %struct.event_watermark, ptr %99, i32 0, i32 0
  %101 = load i64, ptr %100, align 8
  %102 = load ptr, ptr %8, align 8
  store i64 %101, ptr %102, align 8
  br label %103

103:                                              ; preds = %97, %94
  %104 = load ptr, ptr %9, align 8
  %105 = icmp ne ptr %104, null
  br i1 %105, label %106, label %112

106:                                              ; preds = %103
  %107 = load ptr, ptr %6, align 8
  %108 = getelementptr inbounds nuw %struct.bufferevent, ptr %107, i32 0, i32 6
  %109 = getelementptr inbounds nuw %struct.event_watermark, ptr %108, i32 0, i32 1
  %110 = load i64, ptr %109, align 8
  %111 = load ptr, ptr %9, align 8
  store i64 %110, ptr %111, align 8
  br label %112

112:                                              ; preds = %106, %103
  br label %113

113:                                              ; preds = %112
  call void @llvm.lifetime.start.p0(i64 8, ptr %13) #7
  %114 = load ptr, ptr %6, align 8
  %115 = getelementptr inbounds i8, ptr %114, i64 0
  store ptr %115, ptr %13, align 8
  br label %116

116:                                              ; preds = %113
  %117 = load ptr, ptr %13, align 8
  %118 = getelementptr inbounds nuw %struct.bufferevent_private, ptr %117, i32 0, i32 11
  %119 = load ptr, ptr %118, align 8
  %120 = icmp ne ptr %119, null
  br i1 %120, label %121, label %127

121:                                              ; preds = %116
  %122 = load ptr, ptr getelementptr inbounds nuw (%struct.evthread_lock_callbacks, ptr @evthread_lock_fns_, i32 0, i32 5), align 8
  %123 = load ptr, ptr %13, align 8
  %124 = getelementptr inbounds nuw %struct.bufferevent_private, ptr %123, i32 0, i32 11
  %125 = load ptr, ptr %124, align 8
  %126 = call i32 %122(i32 noundef 0, ptr noundef %125)
  br label %127

127:                                              ; preds = %121, %116
  br label %128

128:                                              ; preds = %127
  br label %129

129:                                              ; preds = %128
  call void @llvm.lifetime.end.p0(i64 8, ptr %13) #7
  br label %130

130:                                              ; preds = %129
  store i32 0, ptr %5, align 4
  br label %132

131:                                              ; preds = %72
  store i32 -1, ptr %5, align 4
  br label %132

132:                                              ; preds = %131, %130, %71
  %133 = load i32, ptr %5, align 4
  ret i32 %133
}