; Function Attrs: nounwind uwtable
define range(i32 -1, 1) i32 @bufferevent_getwatermark(ptr noundef readonly captures(none) %0, i16 noundef signext %1, ptr noundef writeonly captures(address_is_null) %2, ptr noundef writeonly captures(address_is_null) %3) local_unnamed_addr #0 {
  switch i16 %1, label %39 [
    i16 4, label %5
    i16 2, label %21
  ]

5:                                                ; preds = %4
  %6 = getelementptr inbounds nuw i8, ptr %0, i64 448
  %7 = load ptr, ptr %6, align 8
  %.not37 = icmp eq ptr %7, null
  br i1 %.not37, label %11, label %8

8:                                                ; preds = %5
  %9 = load ptr, ptr getelementptr inbounds nuw (i8, ptr @evthread_lock_fns_, i64 24), align 8
  %10 = tail call i32 %9(i32 noundef 0, ptr noundef nonnull %7) #7
  br label %11

11:                                               ; preds = %8, %5
  %.not38 = icmp eq ptr %2, null
  br i1 %.not38, label %15, label %12

12:                                               ; preds = %11
  %13 = getelementptr inbounds nuw i8, ptr %0, i64 288
  %14 = load i64, ptr %13, align 8
  store i64 %14, ptr %2, align 8
  br label %15

15:                                               ; preds = %12, %11
  %.not39 = icmp eq ptr %3, null
  br i1 %.not39, label %19, label %16

16:                                               ; preds = %15
  %17 = getelementptr inbounds nuw i8, ptr %0, i64 296
  %18 = load i64, ptr %17, align 8
  store i64 %18, ptr %3, align 8
  br label %19

19:                                               ; preds = %15, %16
  %20 = load ptr, ptr %6, align 8
  %.not40 = icmp eq ptr %20, null
  br i1 %.not40, label %39, label %.sink.split

21:                                               ; preds = %4
  %22 = getelementptr inbounds nuw i8, ptr %0, i64 448
  %23 = load ptr, ptr %22, align 8
  %.not = icmp eq ptr %23, null
  br i1 %.not, label %27, label %24

24:                                               ; preds = %21
  %25 = load ptr, ptr getelementptr inbounds nuw (i8, ptr @evthread_lock_fns_, i64 24), align 8
  %26 = tail call i32 %25(i32 noundef 0, ptr noundef nonnull %23) #7
  br label %27

27:                                               ; preds = %24, %21
  %.not34 = icmp eq ptr %2, null
  br i1 %.not34, label %31, label %28

28:                                               ; preds = %27
  %29 = getelementptr inbounds nuw i8, ptr %0, i64 272
  %30 = load i64, ptr %29, align 8
  store i64 %30, ptr %2, align 8
  br label %31

31:                                               ; preds = %28, %27
  %.not35 = icmp eq ptr %3, null
  br i1 %.not35, label %35, label %32

32:                                               ; preds = %31
  %33 = getelementptr inbounds nuw i8, ptr %0, i64 280
  %34 = load i64, ptr %33, align 8
  store i64 %34, ptr %3, align 8
  br label %35

35:                                               ; preds = %31, %32
  %36 = load ptr, ptr %22, align 8
  %.not36 = icmp eq ptr %36, null
  br i1 %.not36, label %39, label %.sink.split

.sink.split:                                      ; preds = %35, %19
  %.sink = phi ptr [ %20, %19 ], [ %36, %35 ]
  %37 = load ptr, ptr getelementptr inbounds nuw (i8, ptr @evthread_lock_fns_, i64 32), align 8
  %38 = tail call i32 %37(i32 noundef 0, ptr noundef nonnull %.sink) #7
  br label %39

39:                                               ; preds = %.sink.split, %4, %35, %19
  %.0 = phi i32 [ 0, %19 ], [ 0, %35 ], [ -1, %4 ], [ 0, %.sink.split ]
  ret i32 %.0
}